target datalayout = "e-m:e-p270:32:32-p271:32:32-p272:64:64-i64:64-i128:128-f80:128-n8:16:32:64-S128"
target triple = "x86_64-pc-linux-gnu"

%class.SamplePriorityQueue = type { ptr, i64, i32, i64 }

; Function Attrs: mustprogress nounwind uwtable
define hidden void @_ZN19SamplePriorityQueueC2Em(ptr noundef nonnull align 8 dereferenceable(32) %0, i64 noundef %1) unnamed_addr #1 align 2 {
  %3 = alloca ptr, align 8
  %4 = alloca i64, align 8
  store ptr %0, ptr %3, align 8
  store i64 %1, ptr %4, align 8
  %5 = load ptr, ptr %3, align 8
  %6 = getelementptr inbounds %class.SamplePriorityQueue, ptr %5, i32 0, i32 1
  %7 = load i64, ptr %4, align 8
  store i64 %7, ptr %6, align 8
  %8 = getelementptr inbounds %class.SamplePriorityQueue, ptr %5, i32 0, i32 2
  store i32 0, ptr %8, align 8
  %9 = getelementptr inbounds %class.SamplePriorityQueue, ptr %5, i32 0, i32 3
  store i64 0, ptr %9, align 8
  %10 = load i64, ptr %4, align 8
  %11 = mul i64 %10, 8
  %12 = call noundef ptr @_Z12AllocateHeapm8MEMFLAGSN17AllocFailStrategy13AllocFailEnumE(i64 noundef %11, i8 noundef zeroext 16, i32 noundef 0)
  %13 = getelementptr inbounds %class.SamplePriorityQueue, ptr %5, i32 0, i32 0
  store ptr %12, ptr %13, align 8
  %14 = getelementptr inbounds %class.SamplePriorityQueue, ptr %5, i32 0, i32 0
  %15 = load ptr, ptr %14, align 8
  %16 = load i64, ptr %4, align 8
  %17 = mul i64 8, %16
  call void @llvm.memset.p0.i64(ptr align 8 %15, i8 0, i64 %17, i1 false)
  ret void
}