; Function Attrs: mustprogress nounwind uwtable
define hidden void @_ZN19SamplePriorityQueueC2Em(ptr nocapture noundef nonnull writeonly align 8 dereferenceable(32) %0, i64 noundef %1) unnamed_addr #0 align 2 {
  %3 = getelementptr inbounds i8, ptr %0, i64 8
  store i64 %1, ptr %3, align 8
  %4 = getelementptr inbounds i8, ptr %0, i64 16
  store i32 0, ptr %4, align 8
  %5 = getelementptr inbounds i8, ptr %0, i64 24
  store i64 0, ptr %5, align 8
  %6 = shl i64 %1, 3
  %7 = tail call noundef ptr @_Z12AllocateHeapm8MEMFLAGSN17AllocFailStrategy13AllocFailEnumE(i64 noundef %6, i8 noundef zeroext 16, i32 noundef 0) #8
  store ptr %7, ptr %0, align 8
  tail call void @llvm.memset.p0.i64(ptr align 8 %7, i8 0, i64 %6, i1 false)
  ret void
}